target datalayout = "e-m:e-p270:32:32-p271:32:32-p272:64:64-i64:64-i128:128-f80:128-n8:16:32:64-S128"
target triple = "x86_64-pc-linux-gnu"

%struct.TpxFileHeader = type <{ i8, i8, i8, i8, i8, i8, [2 x i8], i32, i32, float, i32, i64, i32, i32, i8, [7 x i8] }>

@.str.64 = private unnamed_addr constant [1 x i8] zeroinitializer, align 1
@.str.136 = private unnamed_addr constant [20 x i8] c"bIr    = %spresent\0A\00", align 1
@.str.137 = private unnamed_addr constant [5 x i8] c"not \00", align 1
@.str.138 = private unnamed_addr constant [20 x i8] c"bBox   = %spresent\0A\00", align 1
@.str.139 = private unnamed_addr constant [20 x i8] c"bTop   = %spresent\0A\00", align 1
@.str.140 = private unnamed_addr constant [20 x i8] c"bX     = %spresent\0A\00", align 1
@.str.141 = private unnamed_addr constant [20 x i8] c"bV     = %spresent\0A\00", align 1
@.str.142 = private unnamed_addr constant [20 x i8] c"bF     = %spresent\0A\00", align 1
@.str.143 = private unnamed_addr constant [13 x i8] c"natoms = %d\0A\00", align 1
@.str.144 = private unnamed_addr constant [13 x i8] c"lambda = %e\0A\00", align 1
@.str.145 = private unnamed_addr constant [19 x i8] c"buffer size = %ld\0A\00", align 1

; Function Attrs: mustprogress uwtable
define void @_Z12pr_tpxheaderP8_IO_FILEiPKcPK13TpxFileHeader(ptr noundef %0, i32 noundef %1, ptr noundef %2, ptr noundef %3) #2 {
  %5 = alloca ptr, align 8
  %6 = alloca i32, align 4
  %7 = alloca ptr, align 8
  %8 = alloca ptr, align 8
  store ptr %0, ptr %5, align 8
  store i32 %1, ptr %6, align 4
  store ptr %2, ptr %7, align 8
  store ptr %3, ptr %8, align 8
  %9 = load ptr, ptr %5, align 8
  %10 = load ptr, ptr %8, align 8
  %11 = load i32, ptr %6, align 4
  %12 = load ptr, ptr %7, align 8
  %13 = call noundef zeroext i1 @_Z9availableP8_IO_FILEPKviPKc(ptr noundef %9, ptr noundef %10, i32 noundef %11, ptr noundef %12)
  br i1 %13, label %14, label %104

14:                                               ; preds = %4
  %15 = load ptr, ptr %5, align 8
  %16 = load i32, ptr %6, align 4
  %17 = load ptr, ptr %7, align 8
  %18 = call noundef i32 @_Z8pr_titleP8_IO_FILEiPKc(ptr noundef %15, i32 noundef %16, ptr noundef %17)
  store i32 %18, ptr %6, align 4
  %19 = load ptr, ptr %5, align 8
  %20 = load i32, ptr %6, align 4
  %21 = call noundef i32 @_Z9pr_indentP8_IO_FILEi(ptr noundef %19, i32 noundef %20)
  %22 = load ptr, ptr %5, align 8
  %23 = load ptr, ptr %8, align 8
  %24 = getelementptr inbounds %struct.TpxFileHeader, ptr %23, i32 0, i32 0
  %25 = load i8, ptr %24, align 8
  %26 = trunc i8 %25 to i1
  %27 = select i1 %26, ptr @.str.64, ptr @.str.137
  %28 = call i32 (ptr, ptr, ...) @fprintf(ptr noundef %22, ptr noundef @.str.136, ptr noundef %27) #4
  %29 = load ptr, ptr %5, align 8
  %30 = load i32, ptr %6, align 4
  %31 = call noundef i32 @_Z9pr_indentP8_IO_FILEi(ptr noundef %29, i32 noundef %30)
  %32 = load ptr, ptr %5, align 8
  %33 = load ptr, ptr %8, align 8
  %34 = getelementptr inbounds %struct.TpxFileHeader, ptr %33, i32 0, i32 1
  %35 = load i8, ptr %34, align 1
  %36 = trunc i8 %35 to i1
  %37 = select i1 %36, ptr @.str.64, ptr @.str.137
  %38 = call i32 (ptr, ptr, ...) @fprintf(ptr noundef %32, ptr noundef @.str.138, ptr noundef %37) #4
  %39 = load ptr, ptr %5, align 8
  %40 = load i32, ptr %6, align 4
  %41 = call noundef i32 @_Z9pr_indentP8_IO_FILEi(ptr noundef %39, i32 noundef %40)
  %42 = load ptr, ptr %5, align 8
  %43 = load ptr, ptr %8, align 8
  %44 = getelementptr inbounds %struct.TpxFileHeader, ptr %43, i32 0, i32 2
  %45 = load i8, ptr %44, align 2
  %46 = trunc i8 %45 to i1
  %47 = select i1 %46, ptr @.str.64, ptr @.str.137
  %48 = call i32 (ptr, ptr, ...) @fprintf(ptr noundef %42, ptr noundef @.str.139, ptr noundef %47) #4
  %49 = load ptr, ptr %5, align 8
  %50 = load i32, ptr %6, align 4
  %51 = call noundef i32 @_Z9pr_indentP8_IO_FILEi(ptr noundef %49, i32 noundef %50)
  %52 = load ptr, ptr %5, align 8
  %53 = load ptr, ptr %8, align 8
  %54 = getelementptr inbounds %struct.TpxFileHeader, ptr %53, i32 0, i32 3
  %55 = load i8, ptr %54, align 1
  %56 = trunc i8 %55 to i1
  %57 = select i1 %56, ptr @.str.64, ptr @.str.137
  %58 = call i32 (ptr, ptr, ...) @fprintf(ptr noundef %52, ptr noundef @.str.140, ptr noundef %57) #4
  %59 = load ptr, ptr %5, align 8
  %60 = load i32, ptr %6, align 4
  %61 = call noundef i32 @_Z9pr_indentP8_IO_FILEi(ptr noundef %59, i32 noundef %60)
  %62 = load ptr, ptr %5, align 8
  %63 = load ptr, ptr %8, align 8
  %64 = getelementptr inbounds %struct.TpxFileHeader, ptr %63, i32 0, i32 4
  %65 = load i8, ptr %64, align 4
  %66 = trunc i8 %65 to i1
  %67 = select i1 %66, ptr @.str.64, ptr @.str.137
  %68 = call i32 (ptr, ptr, ...) @fprintf(ptr noundef %62, ptr noundef @.str.141, ptr noundef %67) #4
  %69 = load ptr, ptr %5, align 8
  %70 = load i32, ptr %6, align 4
  %71 = call noundef i32 @_Z9pr_indentP8_IO_FILEi(ptr noundef %69, i32 noundef %70)
  %72 = load ptr, ptr %5, align 8
  %73 = load ptr, ptr %8, align 8
  %74 = getelementptr inbounds %struct.TpxFileHeader, ptr %73, i32 0, i32 5
  %75 = load i8, ptr %74, align 1
  %76 = trunc i8 %75 to i1
  %77 = select i1 %76, ptr @.str.64, ptr @.str.137
  %78 = call i32 (ptr, ptr, ...) @fprintf(ptr noundef %72, ptr noundef @.str.142, ptr noundef %77) #4
  %79 = load ptr, ptr %5, align 8
  %80 = load i32, ptr %6, align 4
  %81 = call noundef i32 @_Z9pr_indentP8_IO_FILEi(ptr noundef %79, i32 noundef %80)
  %82 = load ptr, ptr %5, align 8
  %83 = load ptr, ptr %8, align 8
  %84 = getelementptr inbounds %struct.TpxFileHeader, ptr %83, i32 0, i32 7
  %85 = load i32, ptr %84, align 8
  %86 = call i32 (ptr, ptr, ...) @fprintf(ptr noundef %82, ptr noundef @.str.143, i32 noundef %85) #4
  %87 = load ptr, ptr %5, align 8
  %88 = load i32, ptr %6, align 4
  %89 = call noundef i32 @_Z9pr_indentP8_IO_FILEi(ptr noundef %87, i32 noundef %88)
  %90 = load ptr, ptr %5, align 8
  %91 = load ptr, ptr %8, align 8
  %92 = getelementptr inbounds %struct.TpxFileHeader, ptr %91, i32 0, i32 9
  %93 = load float, ptr %92, align 8
  %94 = fpext float %93 to double
  %95 = call i32 (ptr, ptr, ...) @fprintf(ptr noundef %90, ptr noundef @.str.144, double noundef %94) #4
  %96 = load ptr, ptr %5, align 8
  %97 = load i32, ptr %6, align 4
  %98 = call noundef i32 @_Z9pr_indentP8_IO_FILEi(ptr noundef %96, i32 noundef %97)
  %99 = load ptr, ptr %5, align 8
  %100 = load ptr, ptr %8, align 8
  %101 = getelementptr inbounds %struct.TpxFileHeader, ptr %100, i32 0, i32 11
  %102 = load i64, ptr %101, align 8
  %103 = call i32 (ptr, ptr, ...) @fprintf(ptr noundef %99, ptr noundef @.str.145, i64 noundef %102) #4
  br label %104

104:                                              ; preds = %14, %4
  ret void
}