; Function Attrs: mustprogress uwtable
define void @_Z12pr_tpxheaderP8_IO_FILEiPKcPK13TpxFileHeader(ptr noundef %0, i32 noundef %1, ptr noundef %2, ptr noundef %3) local_unnamed_addr #5 {
  %5 = tail call noundef zeroext i1 @_Z9availableP8_IO_FILEPKviPKc(ptr noundef %0, ptr noundef %3, i32 noundef %1, ptr noundef %2)
  br i1 %5, label %6, label %56

6:                                                ; preds = %4
  %7 = tail call noundef i32 @_Z8pr_titleP8_IO_FILEiPKc(ptr noundef %0, i32 noundef %1, ptr noundef %2)
  %8 = tail call noundef i32 @_Z9pr_indentP8_IO_FILEi(ptr noundef %0, i32 noundef %7)
  %9 = load i8, ptr %3, align 8
  %10 = trunc i8 %9 to i1
  %11 = select i1 %10, ptr @.str.64, ptr @.str.137
  %12 = tail call i32 (ptr, ptr, ...) @fprintf(ptr noundef %0, ptr noundef nonnull @.str.136, ptr noundef nonnull %11) #22
  %13 = tail call noundef i32 @_Z9pr_indentP8_IO_FILEi(ptr noundef %0, i32 noundef %7)
  %14 = getelementptr inbounds i8, ptr %3, i64 1
  %15 = load i8, ptr %14, align 1
  %16 = trunc i8 %15 to i1
  %17 = select i1 %16, ptr @.str.64, ptr @.str.137
  %18 = tail call i32 (ptr, ptr, ...) @fprintf(ptr noundef %0, ptr noundef nonnull @.str.138, ptr noundef nonnull %17) #22
  %19 = tail call noundef i32 @_Z9pr_indentP8_IO_FILEi(ptr noundef %0, i32 noundef %7)
  %20 = getelementptr inbounds i8, ptr %3, i64 2
  %21 = load i8, ptr %20, align 2
  %22 = trunc i8 %21 to i1
  %23 = select i1 %22, ptr @.str.64, ptr @.str.137
  %24 = tail call i32 (ptr, ptr, ...) @fprintf(ptr noundef %0, ptr noundef nonnull @.str.139, ptr noundef nonnull %23) #22
  %25 = tail call noundef i32 @_Z9pr_indentP8_IO_FILEi(ptr noundef %0, i32 noundef %7)
  %26 = getelementptr inbounds i8, ptr %3, i64 3
  %27 = load i8, ptr %26, align 1
  %28 = trunc i8 %27 to i1
  %29 = select i1 %28, ptr @.str.64, ptr @.str.137
  %30 = tail call i32 (ptr, ptr, ...) @fprintf(ptr noundef %0, ptr noundef nonnull @.str.140, ptr noundef nonnull %29) #22
  %31 = tail call noundef i32 @_Z9pr_indentP8_IO_FILEi(ptr noundef %0, i32 noundef %7)
  %32 = getelementptr inbounds i8, ptr %3, i64 4
  %33 = load i8, ptr %32, align 4
  %34 = trunc i8 %33 to i1
  %35 = select i1 %34, ptr @.str.64, ptr @.str.137
  %36 = tail call i32 (ptr, ptr, ...) @fprintf(ptr noundef %0, ptr noundef nonnull @.str.141, ptr noundef nonnull %35) #22
  %37 = tail call noundef i32 @_Z9pr_indentP8_IO_FILEi(ptr noundef %0, i32 noundef %7)
  %38 = getelementptr inbounds i8, ptr %3, i64 5
  %39 = load i8, ptr %38, align 1
  %40 = trunc i8 %39 to i1
  %41 = select i1 %40, ptr @.str.64, ptr @.str.137
  %42 = tail call i32 (ptr, ptr, ...) @fprintf(ptr noundef %0, ptr noundef nonnull @.str.142, ptr noundef nonnull %41) #22
  %43 = tail call noundef i32 @_Z9pr_indentP8_IO_FILEi(ptr noundef %0, i32 noundef %7)
  %44 = getelementptr inbounds i8, ptr %3, i64 8
  %45 = load i32, ptr %44, align 8
  %46 = tail call i32 (ptr, ptr, ...) @fprintf(ptr noundef %0, ptr noundef nonnull @.str.143, i32 noundef %45) #22
  %47 = tail call noundef i32 @_Z9pr_indentP8_IO_FILEi(ptr noundef %0, i32 noundef %7)
  %48 = getelementptr inbounds i8, ptr %3, i64 16
  %49 = load float, ptr %48, align 8
  %50 = fpext float %49 to double
  %51 = tail call i32 (ptr, ptr, ...) @fprintf(ptr noundef %0, ptr noundef nonnull @.str.144, double noundef %50) #22
  %52 = tail call noundef i32 @_Z9pr_indentP8_IO_FILEi(ptr noundef %0, i32 noundef %7)
  %53 = getelementptr inbounds i8, ptr %3, i64 24
  %54 = load i64, ptr %53, align 8
  %55 = tail call i32 (ptr, ptr, ...) @fprintf(ptr noundef %0, ptr noundef nonnull @.str.145, i64 noundef %54) #22
  br label %56

56:                                               ; preds = %6, %4
  ret void
}